target datalayout = "e-m:e-p270:32:32-p271:32:32-p272:64:64-i64:64-i128:128-f80:128-n8:16:32:64-S128"
target triple = "x86_64-pc-linux-gnu"

%"class.std::locale" = type { ptr }
%"class.boost::locale::detail::format_parser" = type { ptr, %"class.boost::locale::hold_ptr" }
%"class.boost::locale::hold_ptr" = type { ptr }
%"struct.boost::locale::detail::format_parser::data" = type { i32, i64, i32, %"class.boost::locale::ios_info", %"class.std::locale", i8, ptr, ptr }
%"class.boost::locale::ios_info" = type { i64, i32, %"class.std::__cxx11::basic_string", %"class.boost::locale::detail::any_string" }
%"class.std::__cxx11::basic_string" = type { %"struct.std::__cxx11::basic_string<char>::_Alloc_hider", i64, %union.anon }
%"struct.std::__cxx11::basic_string<char>::_Alloc_hider" = type { ptr }
%union.anon = type { i64, [8 x i8] }
%"class.boost::locale::detail::any_string" = type { %"class.std::unique_ptr" }
%"class.std::unique_ptr" = type { %"struct.std::__uniq_ptr_data" }
%"struct.std::__uniq_ptr_data" = type { %"class.std::__uniq_ptr_impl" }
%"class.std::__uniq_ptr_impl" = type { %"class.std::tuple" }
%"class.std::tuple" = type { %"struct.std::_Tuple_impl" }
%"struct.std::_Tuple_impl" = type { %"struct.std::_Head_base.1" }
%"struct.std::_Head_base.1" = type { ptr }

; Function Attrs: mustprogress nounwind uwtable
define linkonce_odr hidden noundef ptr @_ZN5boost6locale8hold_ptrINS0_6detail13format_parser4dataEEptEv(ptr noundef nonnull align 8 dereferenceable(8) %0) #8 comdat align 2 {
  %2 = alloca ptr, align 8
  store ptr %0, ptr %2, align 8, !tbaa !3
  %3 = load ptr, ptr %2, align 8
  %4 = getelementptr inbounds nuw %"class.boost::locale::hold_ptr", ptr %3, i32 0, i32 0
  %5 = load ptr, ptr %4, align 8, !tbaa !29
  ret ptr %5
}

; Function Attrs: mustprogress uwtable
define void @_ZN5boost6locale6detail13format_parser5imbueERKSt6locale(ptr noundef nonnull align 8 dereferenceable(16) %0, ptr noundef nonnull align 8 dereferenceable(8) %1) #4 align 2 {
  %3 = alloca ptr, align 8
  %4 = alloca ptr, align 8
  store ptr %0, ptr %3, align 8, !tbaa !3
  store ptr %1, ptr %4, align 8, !tbaa !3
  %5 = load ptr, ptr %3, align 8
  %6 = getelementptr inbounds nuw %"class.boost::locale::detail::format_parser", ptr %5, i32 0, i32 1
  %7 = call noundef ptr @_ZN5boost6locale8hold_ptrINS0_6detail13format_parser4dataEEptEv(ptr noundef nonnull align 8 dereferenceable(8) %6)
  %8 = getelementptr inbounds nuw %"struct.boost::locale::detail::format_parser::data", ptr %7, i32 0, i32 7
  %9 = load ptr, ptr %8, align 8, !tbaa !28
  %10 = getelementptr inbounds nuw %"class.boost::locale::detail::format_parser", ptr %5, i32 0, i32 1
  %11 = call noundef ptr @_ZN5boost6locale8hold_ptrINS0_6detail13format_parser4dataEEptEv(ptr noundef nonnull align 8 dereferenceable(8) %10)
  %12 = getelementptr inbounds nuw %"struct.boost::locale::detail::format_parser::data", ptr %11, i32 0, i32 6
  %13 = load ptr, ptr %12, align 8, !tbaa !27
  %14 = load ptr, ptr %4, align 8, !tbaa !3
  call void %9(ptr noundef %13, ptr noundef nonnull align 8 dereferenceable(8) %14)
  ret void
}