; Function Attrs: mustprogress uwtable
define void @_ZN5boost6locale6detail13format_parser5imbueERKSt6locale(ptr nocapture noundef nonnull readonly align 8 dereferenceable(16) %0, ptr noundef nonnull align 8 dereferenceable(8) %1) local_unnamed_addr #3 align 2 {
  %3 = getelementptr inbounds nuw i8, ptr %0, i64 8
  %4 = load ptr, ptr %3, align 8, !tbaa !7
  %5 = getelementptr inbounds nuw i8, ptr %4, i64 104
  %6 = load ptr, ptr %5, align 8, !tbaa !35
  %7 = getelementptr inbounds nuw i8, ptr %4, i64 96
  %8 = load ptr, ptr %7, align 8, !tbaa !34
  tail call void %6(ptr noundef %8, ptr noundef nonnull align 8 dereferenceable(8) %1)
  ret void
}